target datalayout = "e-m:e-p270:32:32-p271:32:32-p272:64:64-i64:64-i128:128-f80:128-n8:16:32:64-S128"
target triple = "x86_64-pc-linux-gnu"

%struct.H5O_mesg_loc_t = type { i32, i64 }
%struct.H5SM_sohm_t = type { i32, i32, i32, %union.anon.0 }
%union.anon.0 = type { %struct.H5O_mesg_loc_t }
%union.H5O_fheap_id_t = type { i64 }
%struct.H5SM_heap_loc_t = type { i64, %union.H5O_fheap_id_t }

@H5SM_init_g = global i8 0, align 1
@H5_libterm_g = external global i8, align 1

; Function Attrs: nounwind uwtable
define internal i32 @H5SM__decr_ref(ptr noundef %0, ptr noundef %1, ptr noundef %2) #0 {
  %4 = alloca ptr, align 8
  %5 = alloca ptr, align 8
  %6 = alloca ptr, align 8
  %7 = alloca ptr, align 8
  store ptr %0, ptr %4, align 8, !tbaa !57
  store ptr %1, ptr %5, align 8, !tbaa !57
  store ptr %2, ptr %6, align 8, !tbaa !140
  call void @llvm.lifetime.start.p0(i64 8, ptr %7) #8
  %8 = load ptr, ptr %4, align 8, !tbaa !57
  store ptr %8, ptr %7, align 8, !tbaa !57
  %9 = load i8, ptr @H5SM_init_g, align 1, !tbaa !18, !range !20, !noundef !21
  %10 = trunc i8 %9 to i1
  br i1 %10, label %15, label %11

11:                                               ; preds = %3
  %12 = load i8, ptr @H5_libterm_g, align 1, !tbaa !18, !range !20, !noundef !21
  %13 = trunc i8 %12 to i1
  %14 = xor i1 %13, true
  br label %15

15:                                               ; preds = %11, %3
  %16 = phi i1 [ true, %3 ], [ %14, %11 ]
  %17 = xor i1 %16, true
  %18 = xor i1 %17, true
  %19 = zext i1 %18 to i32
  %20 = sext i32 %19 to i64
  %21 = call i64 @llvm.expect.i64(i64 %20, i64 1)
  %22 = icmp ne i64 %21, 0
  br i1 %22, label %23, label %42

23:                                               ; preds = %15
  %24 = load ptr, ptr %7, align 8, !tbaa !57
  %25 = getelementptr inbounds nuw %struct.H5SM_sohm_t, ptr %24, i32 0, i32 0
  %26 = load i32, ptr %25, align 8, !tbaa !99
  %27 = icmp eq i32 %26, 0
  br i1 %27, label %28, label %35

28:                                               ; preds = %23
  %29 = load ptr, ptr %7, align 8, !tbaa !57
  %30 = getelementptr inbounds nuw %struct.H5SM_sohm_t, ptr %29, i32 0, i32 3
  %31 = getelementptr inbounds nuw %struct.H5SM_heap_loc_t, ptr %30, i32 0, i32 0
  %32 = load i64, ptr %31, align 8, !tbaa !101
  %33 = add i64 %32, -1
  store i64 %33, ptr %31, align 8, !tbaa !101
  %34 = load ptr, ptr %6, align 8, !tbaa !140
  store i8 1, ptr %34, align 1, !tbaa !18
  br label %35

35:                                               ; preds = %28, %23
  %36 = load ptr, ptr %5, align 8, !tbaa !57
  %37 = icmp ne ptr %36, null
  br i1 %37, label %38, label %41

38:                                               ; preds = %35
  %39 = load ptr, ptr %5, align 8, !tbaa !57
  %40 = load ptr, ptr %7, align 8, !tbaa !57
  call void @llvm.memcpy.p0.p0.i64(ptr align 8 %39, ptr align 8 %40, i64 32, i1 false), !tbaa.struct !107
  br label %41

41:                                               ; preds = %38, %35
  br label %42

42:                                               ; preds = %41, %15
  call void @llvm.lifetime.end.p0(i64 8, ptr %7) #8
  ret i32 0
}