; Function Attrs: mustprogress nofree norecurse nosync nounwind willreturn memory(read, argmem: readwrite, inaccessiblemem: none) uwtable
define internal noundef i32 @H5SM__decr_ref(ptr noundef captures(none) %0, ptr noundef writeonly captures(address_is_null) %1, ptr noundef writeonly captures(none) %2) #6 {
  %4 = load i8, ptr @H5SM_init_g, align 1, !tbaa !9, !range !11, !noundef !12
  %5 = trunc nuw i8 %4 to i1
  %6 = load i8, ptr @H5_libterm_g, align 1, !range !11
  %7 = trunc nuw i8 %6 to i1
  %8 = xor i1 %7, true
  %9 = select i1 %5, i1 true, i1 %8
  br i1 %9, label %10, label %19, !prof !13

10:                                               ; preds = %3
  %11 = load i32, ptr %0, align 8, !tbaa !87
  %12 = icmp eq i32 %11, 0
  br i1 %12, label %13, label %17

13:                                               ; preds = %10
  %14 = getelementptr inbounds nuw i8, ptr %0, i64 16
  %15 = load i64, ptr %14, align 8, !tbaa !89
  %16 = add i64 %15, -1
  store i64 %16, ptr %14, align 8, !tbaa !89
  store i8 1, ptr %2, align 1, !tbaa !9
  br label %17

17:                                               ; preds = %13, %10
  %.not = icmp eq ptr %1, null
  br i1 %.not, label %19, label %18

18:                                               ; preds = %17
  tail call void @llvm.memcpy.p0.p0.i64(ptr noundef nonnull align 8 dereferenceable(32) %1, ptr noundef nonnull align 8 dereferenceable(32) %0, i64 32, i1 false), !tbaa.struct !95
  br label %19

19:                                               ; preds = %17, %18, %3
  ret i32 0
}